target datalayout = "e-m:e-p270:32:32-p271:32:32-p272:64:64-i64:64-i128:128-f80:128-n8:16:32:64-S128"
target triple = "x86_64-pc-linux-gnu"

%struct.DVBSubCLUT = type { i32, i32, [4 x i32], [16 x i32], [256 x i32], ptr }

@default_clut = internal global %struct.DVBSubCLUT zeroinitializer, align 8

; Function Attrs: cold nounwind optsize uwtable
define internal void @init_default_clut() #0 {
  %1 = alloca i32, align 4
  %2 = alloca i32, align 4
  %3 = alloca i32, align 4
  %4 = alloca i32, align 4
  %5 = alloca i32, align 4
  call void @llvm.lifetime.start.p0(i64 4, ptr %1) #11
  call void @llvm.lifetime.start.p0(i64 4, ptr %2) #11
  call void @llvm.lifetime.start.p0(i64 4, ptr %3) #11
  call void @llvm.lifetime.start.p0(i64 4, ptr %4) #11
  call void @llvm.lifetime.start.p0(i64 4, ptr %5) #11
  store i32 0, ptr %5, align 4, !tbaa !54
  store i32 -1, ptr @default_clut, align 8, !tbaa !73
  store ptr null, ptr getelementptr inbounds nuw (%struct.DVBSubCLUT, ptr @default_clut, i32 0, i32 5), align 8, !tbaa !75
  store i32 0, ptr getelementptr inbounds nuw (%struct.DVBSubCLUT, ptr @default_clut, i32 0, i32 2), align 8, !tbaa !54
  store i32 -1, ptr getelementptr inbounds ([4 x i32], ptr getelementptr inbounds nuw (%struct.DVBSubCLUT, ptr @default_clut, i32 0, i32 2), i64 0, i64 1), align 4, !tbaa !54
  store i32 -16777216, ptr getelementptr inbounds ([4 x i32], ptr getelementptr inbounds nuw (%struct.DVBSubCLUT, ptr @default_clut, i32 0, i32 2), i64 0, i64 2), align 8, !tbaa !54
  store i32 -8421505, ptr getelementptr inbounds ([4 x i32], ptr getelementptr inbounds nuw (%struct.DVBSubCLUT, ptr @default_clut, i32 0, i32 2), i64 0, i64 3), align 4, !tbaa !54
  store i32 0, ptr getelementptr inbounds nuw (%struct.DVBSubCLUT, ptr @default_clut, i32 0, i32 3), align 8, !tbaa !54
  store i32 1, ptr %1, align 4, !tbaa !54
  br label %6

6:                                                ; preds = %50, %0
  %7 = load i32, ptr %1, align 4, !tbaa !54
  %8 = icmp slt i32 %7, 16
  br i1 %8, label %9, label %53

9:                                                ; preds = %6
  %10 = load i32, ptr %1, align 4, !tbaa !54
  %11 = icmp slt i32 %10, 8
  br i1 %11, label %12, label %25

12:                                               ; preds = %9
  %13 = load i32, ptr %1, align 4, !tbaa !54
  %14 = and i32 %13, 1
  %15 = icmp ne i32 %14, 0
  %16 = select i1 %15, i32 255, i32 0
  store i32 %16, ptr %2, align 4, !tbaa !54
  %17 = load i32, ptr %1, align 4, !tbaa !54
  %18 = and i32 %17, 2
  %19 = icmp ne i32 %18, 0
  %20 = select i1 %19, i32 255, i32 0
  store i32 %20, ptr %3, align 4, !tbaa !54
  %21 = load i32, ptr %1, align 4, !tbaa !54
  %22 = and i32 %21, 4
  %23 = icmp ne i32 %22, 0
  %24 = select i1 %23, i32 255, i32 0
  store i32 %24, ptr %4, align 4, !tbaa !54
  br label %38

25:                                               ; preds = %9
  %26 = load i32, ptr %1, align 4, !tbaa !54
  %27 = and i32 %26, 1
  %28 = icmp ne i32 %27, 0
  %29 = select i1 %28, i32 127, i32 0
  store i32 %29, ptr %2, align 4, !tbaa !54
  %30 = load i32, ptr %1, align 4, !tbaa !54
  %31 = and i32 %30, 2
  %32 = icmp ne i32 %31, 0
  %33 = select i1 %32, i32 127, i32 0
  store i32 %33, ptr %3, align 4, !tbaa !54
  %34 = load i32, ptr %1, align 4, !tbaa !54
  %35 = and i32 %34, 4
  %36 = icmp ne i32 %35, 0
  %37 = select i1 %36, i32 127, i32 0
  store i32 %37, ptr %4, align 4, !tbaa !54
  br label %38

38:                                               ; preds = %25, %12
  %39 = load i32, ptr %2, align 4, !tbaa !54
  %40 = shl i32 %39, 16
  %41 = or i32 -16777216, %40
  %42 = load i32, ptr %3, align 4, !tbaa !54
  %43 = shl i32 %42, 8
  %44 = or i32 %41, %43
  %45 = load i32, ptr %4, align 4, !tbaa !54
  %46 = or i32 %44, %45
  %47 = load i32, ptr %1, align 4, !tbaa !54
  %48 = sext i32 %47 to i64
  %49 = getelementptr inbounds [16 x i32], ptr getelementptr inbounds nuw (%struct.DVBSubCLUT, ptr @default_clut, i32 0, i32 3), i64 0, i64 %48
  store i32 %46, ptr %49, align 4, !tbaa !54
  br label %50

50:                                               ; preds = %38
  %51 = load i32, ptr %1, align 4, !tbaa !54
  %52 = add nsw i32 %51, 1
  store i32 %52, ptr %1, align 4, !tbaa !54
  br label %6, !llvm.loop !76

53:                                               ; preds = %6
  store i32 0, ptr getelementptr inbounds nuw (%struct.DVBSubCLUT, ptr @default_clut, i32 0, i32 4), align 8, !tbaa !54
  store i32 1, ptr %1, align 4, !tbaa !54
  br label %54

54:                                               ; preds = %206, %53
  %55 = load i32, ptr %1, align 4, !tbaa !54
  %56 = icmp slt i32 %55, 256
  br i1 %56, label %57, label %209

57:                                               ; preds = %54
  %58 = load i32, ptr %1, align 4, !tbaa !54
  %59 = icmp slt i32 %58, 8
  br i1 %59, label %60, label %73

60:                                               ; preds = %57
  %61 = load i32, ptr %1, align 4, !tbaa !54
  %62 = and i32 %61, 1
  %63 = icmp ne i32 %62, 0
  %64 = select i1 %63, i32 255, i32 0
  store i32 %64, ptr %2, align 4, !tbaa !54
  %65 = load i32, ptr %1, align 4, !tbaa !54
  %66 = and i32 %65, 2
  %67 = icmp ne i32 %66, 0
  %68 = select i1 %67, i32 255, i32 0
  store i32 %68, ptr %3, align 4, !tbaa !54
  %69 = load i32, ptr %1, align 4, !tbaa !54
  %70 = and i32 %69, 4
  %71 = icmp ne i32 %70, 0
  %72 = select i1 %71, i32 255, i32 0
  store i32 %72, ptr %4, align 4, !tbaa !54
  store i32 63, ptr %5, align 4, !tbaa !54
  br label %192

73:                                               ; preds = %57
  %74 = load i32, ptr %1, align 4, !tbaa !54
  %75 = and i32 %74, 136
  switch i32 %75, label %191 [
    i32 0, label %76
    i32 8, label %104
    i32 128, label %132
    i32 136, label %163
  ]

76:                                               ; preds = %73
  %77 = load i32, ptr %1, align 4, !tbaa !54
  %78 = and i32 %77, 1
  %79 = icmp ne i32 %78, 0
  %80 = select i1 %79, i32 85, i32 0
  %81 = load i32, ptr %1, align 4, !tbaa !54
  %82 = and i32 %81, 16
  %83 = icmp ne i32 %82, 0
  %84 = select i1 %83, i32 170, i32 0
  %85 = add nsw i32 %80, %84
  store i32 %85, ptr %2, align 4, !tbaa !54
  %86 = load i32, ptr %1, align 4, !tbaa !54
  %87 = and i32 %86, 2
  %88 = icmp ne i32 %87, 0
  %89 = select i1 %88, i32 85, i32 0
  %90 = load i32, ptr %1, align 4, !tbaa !54
  %91 = and i32 %90, 32
  %92 = icmp ne i32 %91, 0
  %93 = select i1 %92, i32 170, i32 0
  %94 = add nsw i32 %89, %93
  store i32 %94, ptr %3, align 4, !tbaa !54
  %95 = load i32, ptr %1, align 4, !tbaa !54
  %96 = and i32 %95, 4
  %97 = icmp ne i32 %96, 0
  %98 = select i1 %97, i32 85, i32 0
  %99 = load i32, ptr %1, align 4, !tbaa !54
  %100 = and i32 %99, 64
  %101 = icmp ne i32 %100, 0
  %102 = select i1 %101, i32 170, i32 0
  %103 = add nsw i32 %98, %102
  store i32 %103, ptr %4, align 4, !tbaa !54
  store i32 255, ptr %5, align 4, !tbaa !54
  br label %191

104:                                              ; preds = %73
  %105 = load i32, ptr %1, align 4, !tbaa !54
  %106 = and i32 %105, 1
  %107 = icmp ne i32 %106, 0
  %108 = select i1 %107, i32 85, i32 0
  %109 = load i32, ptr %1, align 4, !tbaa !54
  %110 = and i32 %109, 16
  %111 = icmp ne i32 %110, 0
  %112 = select i1 %111, i32 170, i32 0
  %113 = add nsw i32 %108, %112
  store i32 %113, ptr %2, align 4, !tbaa !54
  %114 = load i32, ptr %1, align 4, !tbaa !54
  %115 = and i32 %114, 2
  %116 = icmp ne i32 %115, 0
  %117 = select i1 %116, i32 85, i32 0
  %118 = load i32, ptr %1, align 4, !tbaa !54
  %119 = and i32 %118, 32
  %120 = icmp ne i32 %119, 0
  %121 = select i1 %120, i32 170, i32 0
  %122 = add nsw i32 %117, %121
  store i32 %122, ptr %3, align 4, !tbaa !54
  %123 = load i32, ptr %1, align 4, !tbaa !54
  %124 = and i32 %123, 4
  %125 = icmp ne i32 %124, 0
  %126 = select i1 %125, i32 85, i32 0
  %127 = load i32, ptr %1, align 4, !tbaa !54
  %128 = and i32 %127, 64
  %129 = icmp ne i32 %128, 0
  %130 = select i1 %129, i32 170, i32 0
  %131 = add nsw i32 %126, %130
  store i32 %131, ptr %4, align 4, !tbaa !54
  store i32 127, ptr %5, align 4, !tbaa !54
  br label %191

132:                                              ; preds = %73
  %133 = load i32, ptr %1, align 4, !tbaa !54
  %134 = and i32 %133, 1
  %135 = icmp ne i32 %134, 0
  %136 = select i1 %135, i32 43, i32 0
  %137 = add nsw i32 127, %136
  %138 = load i32, ptr %1, align 4, !tbaa !54
  %139 = and i32 %138, 16
  %140 = icmp ne i32 %139, 0
  %141 = select i1 %140, i32 85, i32 0
  %142 = add nsw i32 %137, %141
  store i32 %142, ptr %2, align 4, !tbaa !54
  %143 = load i32, ptr %1, align 4, !tbaa !54
  %144 = and i32 %143, 2
  %145 = icmp ne i32 %144, 0
  %146 = select i1 %145, i32 43, i32 0
  %147 = add nsw i32 127, %146
  %148 = load i32, ptr %1, align 4, !tbaa !54
  %149 = and i32 %148, 32
  %150 = icmp ne i32 %149, 0
  %151 = select i1 %150, i32 85, i32 0
  %152 = add nsw i32 %147, %151
  store i32 %152, ptr %3, align 4, !tbaa !54
  %153 = load i32, ptr %1, align 4, !tbaa !54
  %154 = and i32 %153, 4
  %155 = icmp ne i32 %154, 0
  %156 = select i1 %155, i32 43, i32 0
  %157 = add nsw i32 127, %156
  %158 = load i32, ptr %1, align 4, !tbaa !54
  %159 = and i32 %158, 64
  %160 = icmp ne i32 %159, 0
  %161 = select i1 %160, i32 85, i32 0
  %162 = add nsw i32 %157, %161
  store i32 %162, ptr %4, align 4, !tbaa !54
  store i32 255, ptr %5, align 4, !tbaa !54
  br label %191

163:                                              ; preds = %73
  %164 = load i32, ptr %1, align 4, !tbaa !54
  %165 = and i32 %164, 1
  %166 = icmp ne i32 %165, 0
  %167 = select i1 %166, i32 43, i32 0
  %168 = load i32, ptr %1, align 4, !tbaa !54
  %169 = and i32 %168, 16
  %170 = icmp ne i32 %169, 0
  %171 = select i1 %170, i32 85, i32 0
  %172 = add nsw i32 %167, %171
  store i32 %172, ptr %2, align 4, !tbaa !54
  %173 = load i32, ptr %1, align 4, !tbaa !54
  %174 = and i32 %173, 2
  %175 = icmp ne i32 %174, 0
  %176 = select i1 %175, i32 43, i32 0
  %177 = load i32, ptr %1, align 4, !tbaa !54
  %178 = and i32 %177, 32
  %179 = icmp ne i32 %178, 0
  %180 = select i1 %179, i32 85, i32 0
  %181 = add nsw i32 %176, %180
  store i32 %181, ptr %3, align 4, !tbaa !54
  %182 = load i32, ptr %1, align 4, !tbaa !54
  %183 = and i32 %182, 4
  %184 = icmp ne i32 %183, 0
  %185 = select i1 %184, i32 43, i32 0
  %186 = load i32, ptr %1, align 4, !tbaa !54
  %187 = and i32 %186, 64
  %188 = icmp ne i32 %187, 0
  %189 = select i1 %188, i32 85, i32 0
  %190 = add nsw i32 %185, %189
  store i32 %190, ptr %4, align 4, !tbaa !54
  store i32 255, ptr %5, align 4, !tbaa !54
  br label %191

191:                                              ; preds = %73, %163, %132, %104, %76
  br label %192

192:                                              ; preds = %191, %60
  %193 = load i32, ptr %5, align 4, !tbaa !54
  %194 = shl i32 %193, 24
  %195 = load i32, ptr %2, align 4, !tbaa !54
  %196 = shl i32 %195, 16
  %197 = or i32 %194, %196
  %198 = load i32, ptr %3, align 4, !tbaa !54
  %199 = shl i32 %198, 8
  %200 = or i32 %197, %199
  %201 = load i32, ptr %4, align 4, !tbaa !54
  %202 = or i32 %200, %201
  %203 = load i32, ptr %1, align 4, !tbaa !54
  %204 = sext i32 %203 to i64
  %205 = getelementptr inbounds [256 x i32], ptr getelementptr inbounds nuw (%struct.DVBSubCLUT, ptr @default_clut, i32 0, i32 4), i64 0, i64 %204
  store i32 %202, ptr %205, align 4, !tbaa !54
  br label %206

206:                                              ; preds = %192
  %207 = load i32, ptr %1, align 4, !tbaa !54
  %208 = add nsw i32 %207, 1
  store i32 %208, ptr %1, align 4, !tbaa !54
  br label %54, !llvm.loop !77

209:                                              ; preds = %54
  call void @llvm.lifetime.end.p0(i64 4, ptr %5) #11
  call void @llvm.lifetime.end.p0(i64 4, ptr %4) #11
  call void @llvm.lifetime.end.p0(i64 4, ptr %3) #11
  call void @llvm.lifetime.end.p0(i64 4, ptr %2) #11
  call void @llvm.lifetime.end.p0(i64 4, ptr %1) #11
  ret void
}