; Function Attrs: cold nofree norecurse nosync nounwind optsize memory(write, argmem: none, inaccessiblemem: none) uwtable
define internal void @init_default_clut() #4 {
  store i32 -1, ptr @default_clut, align 8, !tbaa !102
  store ptr null, ptr getelementptr inbounds nuw (i8, ptr @default_clut, i64 1112), align 8, !tbaa !61
  store i32 0, ptr getelementptr inbounds nuw (i8, ptr @default_clut, i64 8), align 8, !tbaa !106
  store i32 -1, ptr getelementptr inbounds nuw (i8, ptr @default_clut, i64 12), align 4, !tbaa !106
  store i32 -16777216, ptr getelementptr inbounds nuw (i8, ptr @default_clut, i64 16), align 8, !tbaa !106
  store i32 -8421505, ptr getelementptr inbounds nuw (i8, ptr @default_clut, i64 20), align 4, !tbaa !106
  store i32 0, ptr getelementptr inbounds nuw (i8, ptr @default_clut, i64 24), align 8, !tbaa !106
  br label %1

1:                                                ; preds = %0, %15
  %indvars.iv = phi i64 [ 1, %0 ], [ %indvars.iv.next, %15 ]
  %2 = icmp samesign ult i64 %indvars.iv, 8
  %3 = trunc nuw nsw i64 %indvars.iv to i32
  %4 = and i32 %3, 1
  %.not85 = icmp eq i32 %4, 0
  %5 = and i32 %3, 2
  %.not86 = icmp eq i32 %5, 0
  br i1 %2, label %6, label %10

6:                                                ; preds = %1
  %7 = select i1 %.not85, i32 0, i32 16711680
  %8 = select i1 %.not86, i32 0, i32 65280
  %.not87 = icmp samesign ult i64 %indvars.iv, 4
  %9 = select i1 %.not87, i32 0, i32 255
  br label %15

10:                                               ; preds = %1
  %11 = select i1 %.not85, i32 0, i32 8323072
  %12 = select i1 %.not86, i32 0, i32 32512
  %13 = and i32 %3, 4
  %.not84 = icmp eq i32 %13, 0
  %14 = select i1 %.not84, i32 0, i32 127
  br label %15

15:                                               ; preds = %10, %6
  %.052 = phi i32 [ %7, %6 ], [ %11, %10 ]
  %.050 = phi i32 [ %8, %6 ], [ %12, %10 ]
  %.049 = phi i32 [ %9, %6 ], [ %14, %10 ]
  %16 = or disjoint i32 %.052, %.050
  %17 = or disjoint i32 %16, %.049
  %18 = or disjoint i32 %17, -16777216
  %19 = getelementptr inbounds nuw [16 x i32], ptr getelementptr inbounds nuw (i8, ptr @default_clut, i64 24), i64 0, i64 %indvars.iv
  store i32 %18, ptr %19, align 4, !tbaa !106
  %indvars.iv.next = add nuw nsw i64 %indvars.iv, 1
  %exitcond.not = icmp eq i64 %indvars.iv.next, 16
  br i1 %exitcond.not, label %20, label %1, !llvm.loop !125

20:                                               ; preds = %15
  store i32 0, ptr getelementptr inbounds nuw (i8, ptr @default_clut, i64 88), align 8, !tbaa !106
  br label %21

21:                                               ; preds = %20, %78
  %indvars.iv91 = phi i64 [ 1, %20 ], [ %indvars.iv.next92, %78 ]
  %22 = icmp samesign ult i64 %indvars.iv91, 8
  %23 = trunc nuw nsw i64 %indvars.iv91 to i32
  br i1 %22, label %24, label %30

24:                                               ; preds = %21
  %25 = and i32 %23, 1
  %.not79 = icmp eq i32 %25, 0
  %26 = select i1 %.not79, i32 0, i32 255
  %27 = and i32 %23, 2
  %.not80 = icmp eq i32 %27, 0
  %28 = select i1 %.not80, i32 0, i32 255
  %.not81 = icmp samesign ult i64 %indvars.iv91, 4
  %29 = select i1 %.not81, i32 0, i32 255
  br label %78

30:                                               ; preds = %21
  %31 = trunc i64 %indvars.iv91 to i8
  %trunc = and i8 %31, -120
  %32 = and i32 %23, 1
  %.not73 = icmp eq i32 %32, 0
  %33 = and i32 %23, 16
  %.not74 = icmp eq i32 %33, 0
  %34 = and i32 %23, 2
  %.not75 = icmp eq i32 %34, 0
  %35 = and i32 %23, 32
  %.not76 = icmp eq i32 %35, 0
  %36 = and i32 %23, 4
  %.not77 = icmp eq i32 %36, 0
  %37 = and i32 %23, 64
  %.not78 = icmp eq i32 %37, 0
  switch i8 %trunc, label %.unreachabledefault [
    i8 0, label %38
    i8 8, label %48
    i8 -128, label %58
    i8 -120, label %68
  ]

38:                                               ; preds = %30
  %39 = select i1 %.not73, i32 0, i32 85
  %40 = select i1 %.not74, i32 0, i32 170
  %41 = or disjoint i32 %39, %40
  %42 = select i1 %.not75, i32 0, i32 85
  %43 = select i1 %.not76, i32 0, i32 170
  %44 = or disjoint i32 %42, %43
  %45 = select i1 %.not77, i32 0, i32 85
  %46 = select i1 %.not78, i32 0, i32 170
  %47 = or disjoint i32 %45, %46
  br label %78

48:                                               ; preds = %30
  %49 = select i1 %.not73, i32 0, i32 85
  %50 = select i1 %.not74, i32 0, i32 170
  %51 = or disjoint i32 %49, %50
  %52 = select i1 %.not75, i32 0, i32 85
  %53 = select i1 %.not76, i32 0, i32 170
  %54 = or disjoint i32 %52, %53
  %55 = select i1 %.not77, i32 0, i32 85
  %56 = select i1 %.not78, i32 0, i32 170
  %57 = or disjoint i32 %55, %56
  br label %78

58:                                               ; preds = %30
  %59 = select i1 %.not73, i32 127, i32 170
  %60 = select i1 %.not74, i32 0, i32 85
  %61 = add nuw nsw i32 %59, %60
  %62 = select i1 %.not75, i32 127, i32 170
  %63 = select i1 %.not76, i32 0, i32 85
  %64 = add nuw nsw i32 %62, %63
  %65 = select i1 %.not77, i32 127, i32 170
  %66 = select i1 %.not78, i32 0, i32 85
  %67 = add nuw nsw i32 %65, %66
  br label %78

68:                                               ; preds = %30
  %69 = select i1 %.not73, i32 0, i32 43
  %70 = select i1 %.not74, i32 0, i32 85
  %71 = add nuw nsw i32 %69, %70
  %72 = select i1 %.not75, i32 0, i32 43
  %73 = select i1 %.not76, i32 0, i32 85
  %74 = add nuw nsw i32 %72, %73
  %75 = select i1 %.not77, i32 0, i32 43
  %76 = select i1 %.not78, i32 0, i32 85
  %77 = add nuw nsw i32 %75, %76
  br label %78

.unreachabledefault:                              ; preds = %30
  unreachable

78:                                               ; preds = %38, %48, %58, %68, %24
  %.153 = phi i32 [ %26, %24 ], [ %71, %68 ], [ %61, %58 ], [ %51, %48 ], [ %41, %38 ]
  %.151 = phi i32 [ %28, %24 ], [ %74, %68 ], [ %64, %58 ], [ %54, %48 ], [ %44, %38 ]
  %.1 = phi i32 [ %29, %24 ], [ %77, %68 ], [ %67, %58 ], [ %57, %48 ], [ %47, %38 ]
  %.0 = phi i32 [ 1056964608, %24 ], [ -16777216, %68 ], [ -16777216, %58 ], [ 2130706432, %48 ], [ -16777216, %38 ]
  %79 = shl nuw nsw i32 %.153, 16
  %80 = shl nuw nsw i32 %.151, 8
  %81 = or i32 %80, %79
  %82 = or i32 %81, %.1
  %83 = or i32 %82, %.0
  %84 = getelementptr inbounds nuw [256 x i32], ptr getelementptr inbounds nuw (i8, ptr @default_clut, i64 88), i64 0, i64 %indvars.iv91
  store i32 %83, ptr %84, align 4, !tbaa !106
  %indvars.iv.next92 = add nuw nsw i64 %indvars.iv91, 1
  %exitcond94.not = icmp eq i64 %indvars.iv.next92, 256
  br i1 %exitcond94.not, label %85, label %21, !llvm.loop !126

85:                                               ; preds = %78
  ret void
}